target datalayout = "e-m:e-p270:32:32-p271:32:32-p272:64:64-i64:64-i128:128-f80:128-n8:16:32:64-S128"
target triple = "x86_64-pc-linux-gnu"

%struct.MpegTSContext = type { ptr, ptr, i32, i64, i32, i32, i32, i64, i64, i32, ptr, i64, i32, i32, i32, i32, i32, i32, i32, i32, i32, ptr, [8192 x i8], [8192 x ptr], i32, ptr, [32 x ptr] }
%struct.MpegTSFilter = type { i32, i32, i32, i64, i32, i32, %union.anon.0 }
%union.anon.0 = type { %struct.MpegTSSectionFilter }
%struct.MpegTSSectionFilter = type { i32, i32, i32, i32, i32, ptr, i8, ptr, ptr }

; Function Attrs: alwaysinline nounwind willreturn memory(none) uwtable
define internal i32 @av_bswap32(i32 noundef %0) #7 {
  %2 = alloca i32, align 4
  store i32 %0, ptr %2, align 4, !tbaa !11
  %3 = load i32, ptr %2, align 4, !tbaa !11
  %4 = shl i32 %3, 8
  %5 = and i32 %4, 65280
  %6 = load i32, ptr %2, align 4, !tbaa !11
  %7 = lshr i32 %6, 8
  %8 = and i32 %7, 255
  %9 = or i32 %5, %8
  %10 = shl i32 %9, 16
  %11 = load i32, ptr %2, align 4, !tbaa !11
  %12 = lshr i32 %11, 16
  %13 = shl i32 %12, 8
  %14 = and i32 %13, 65280
  %15 = load i32, ptr %2, align 4, !tbaa !11
  %16 = lshr i32 %15, 16
  %17 = lshr i32 %16, 8
  %18 = and i32 %17, 255
  %19 = or i32 %14, %18
  %20 = or i32 %10, %19
  ret i32 %20
}

; Function Attrs: alwaysinline nounwind willreturn memory(none) uwtable
define internal zeroext i16 @av_bswap16(i16 noundef zeroext %0) #7 {
  %2 = alloca i16, align 2
  store i16 %0, ptr %2, align 2, !tbaa !207
  %3 = load i16, ptr %2, align 2, !tbaa !207
  %4 = zext i16 %3 to i32
  %5 = ashr i32 %4, 8
  %6 = load i16, ptr %2, align 2, !tbaa !207
  %7 = zext i16 %6 to i32
  %8 = shl i32 %7, 8
  %9 = or i32 %5, %8
  %10 = trunc i32 %9 to i16
  store i16 %10, ptr %2, align 2, !tbaa !207
  %11 = load i16, ptr %2, align 2, !tbaa !207
  ret i16 %11
}

; Function Attrs: nounwind uwtable
define internal void @write_section_data(ptr noundef %0, ptr noundef %1, ptr noundef %2, i32 noundef %3, i32 noundef %4) #0 {
  %6 = alloca ptr, align 8
  %7 = alloca ptr, align 8
  %8 = alloca ptr, align 8
  %9 = alloca i32, align 4
  %10 = alloca i32, align 4
  %11 = alloca ptr, align 8
  %12 = alloca ptr, align 8
  %13 = alloca i32, align 4
  %14 = alloca i32, align 4
  %15 = alloca i32, align 4
  %16 = alloca i32, align 4
  store ptr %0, ptr %6, align 8, !tbaa !20
  store ptr %1, ptr %7, align 8, !tbaa !50
  store ptr %2, ptr %8, align 8, !tbaa !16
  store i32 %3, ptr %9, align 4, !tbaa !11
  store i32 %4, ptr %10, align 4, !tbaa !11
  call void @llvm.lifetime.start.p0(i64 8, ptr %11) #12
  %17 = load ptr, ptr %7, align 8, !tbaa !50
  %18 = getelementptr inbounds nuw %struct.MpegTSFilter, ptr %17, i32 0, i32 6
  store ptr %18, ptr %11, align 8, !tbaa !99
  call void @llvm.lifetime.start.p0(i64 8, ptr %12) #12
  store ptr null, ptr %12, align 8, !tbaa !16
  call void @llvm.lifetime.start.p0(i64 4, ptr %13) #12
  call void @llvm.lifetime.start.p0(i64 4, ptr %14) #12
  %19 = load i32, ptr %10, align 4, !tbaa !11
  %20 = icmp ne i32 %19, 0
  br i1 %20, label %21, label %38

21:                                               ; preds = %5
  %22 = load ptr, ptr %11, align 8, !tbaa !99
  %23 = getelementptr inbounds nuw %struct.MpegTSSectionFilter, ptr %22, i32 0, i32 5
  %24 = load ptr, ptr %23, align 8, !tbaa !104
  %25 = load ptr, ptr %8, align 8, !tbaa !16
  %26 = load i32, ptr %9, align 4, !tbaa !11
  %27 = sext i32 %26 to i64
  call void @llvm.memcpy.p0.p0.i64(ptr align 1 %24, ptr align 1 %25, i64 %27, i1 false)
  %28 = load i32, ptr %9, align 4, !tbaa !11
  %29 = load ptr, ptr %11, align 8, !tbaa !99
  %30 = getelementptr inbounds nuw %struct.MpegTSSectionFilter, ptr %29, i32 0, i32 0
  store i32 %28, ptr %30, align 8, !tbaa !323
  %31 = load ptr, ptr %11, align 8, !tbaa !99
  %32 = getelementptr inbounds nuw %struct.MpegTSSectionFilter, ptr %31, i32 0, i32 1
  store i32 -1, ptr %32, align 4, !tbaa !324
  %33 = load ptr, ptr %11, align 8, !tbaa !99
  %34 = getelementptr inbounds nuw %struct.MpegTSSectionFilter, ptr %33, i32 0, i32 6
  %35 = load i8, ptr %34, align 8
  %36 = and i8 %35, -3
  %37 = or i8 %36, 0
  store i8 %37, ptr %34, align 8
  br label %74

38:                                               ; preds = %5
  %39 = load ptr, ptr %11, align 8, !tbaa !99
  %40 = getelementptr inbounds nuw %struct.MpegTSSectionFilter, ptr %39, i32 0, i32 6
  %41 = load i8, ptr %40, align 8
  %42 = lshr i8 %41, 1
  %43 = and i8 %42, 1
  %44 = zext i8 %43 to i32
  %45 = icmp ne i32 %44, 0
  br i1 %45, label %46, label %47

46:                                               ; preds = %38
  store i32 1, ptr %15, align 4
  br label %253

47:                                               ; preds = %38
  %48 = load ptr, ptr %11, align 8, !tbaa !99
  %49 = getelementptr inbounds nuw %struct.MpegTSSectionFilter, ptr %48, i32 0, i32 0
  %50 = load i32, ptr %49, align 8, !tbaa !323
  %51 = sub nsw i32 4096, %50
  store i32 %51, ptr %13, align 4, !tbaa !11
  %52 = load i32, ptr %9, align 4, !tbaa !11
  %53 = load i32, ptr %13, align 4, !tbaa !11
  %54 = icmp slt i32 %52, %53
  br i1 %54, label %55, label %57

55:                                               ; preds = %47
  %56 = load i32, ptr %9, align 4, !tbaa !11
  store i32 %56, ptr %13, align 4, !tbaa !11
  br label %57

57:                                               ; preds = %55, %47
  %58 = load ptr, ptr %11, align 8, !tbaa !99
  %59 = getelementptr inbounds nuw %struct.MpegTSSectionFilter, ptr %58, i32 0, i32 5
  %60 = load ptr, ptr %59, align 8, !tbaa !104
  %61 = load ptr, ptr %11, align 8, !tbaa !99
  %62 = getelementptr inbounds nuw %struct.MpegTSSectionFilter, ptr %61, i32 0, i32 0
  %63 = load i32, ptr %62, align 8, !tbaa !323
  %64 = sext i32 %63 to i64
  %65 = getelementptr inbounds i8, ptr %60, i64 %64
  %66 = load ptr, ptr %8, align 8, !tbaa !16
  %67 = load i32, ptr %13, align 4, !tbaa !11
  %68 = sext i32 %67 to i64
  call void @llvm.memcpy.p0.p0.i64(ptr align 1 %65, ptr align 1 %66, i64 %68, i1 false)
  %69 = load i32, ptr %13, align 4, !tbaa !11
  %70 = load ptr, ptr %11, align 8, !tbaa !99
  %71 = getelementptr inbounds nuw %struct.MpegTSSectionFilter, ptr %70, i32 0, i32 0
  %72 = load i32, ptr %71, align 8, !tbaa !323
  %73 = add nsw i32 %72, %69
  store i32 %73, ptr %71, align 8, !tbaa !323
  br label %74

74:                                               ; preds = %57, %21
  store i32 0, ptr %14, align 4, !tbaa !11
  %75 = load ptr, ptr %11, align 8, !tbaa !99
  %76 = getelementptr inbounds nuw %struct.MpegTSSectionFilter, ptr %75, i32 0, i32 5
  %77 = load ptr, ptr %76, align 8, !tbaa !104
  store ptr %77, ptr %12, align 8, !tbaa !16
  br label %78

78:                                               ; preds = %251, %74
  %79 = load ptr, ptr %12, align 8, !tbaa !16
  %80 = load ptr, ptr %11, align 8, !tbaa !99
  %81 = getelementptr inbounds nuw %struct.MpegTSSectionFilter, ptr %80, i32 0, i32 5
  %82 = load ptr, ptr %81, align 8, !tbaa !104
  %83 = ptrtoint ptr %79 to i64
  %84 = ptrtoint ptr %82 to i64
  %85 = sub i64 %83, %84
  %86 = icmp slt i64 %85, 4096
  br i1 %86, label %87, label %93

87:                                               ; preds = %78
  %88 = load ptr, ptr %12, align 8, !tbaa !16
  %89 = getelementptr inbounds i8, ptr %88, i64 0
  %90 = load i8, ptr %89, align 1, !tbaa !66
  %91 = zext i8 %90 to i32
  %92 = icmp ne i32 %91, 255
  br label %93

93:                                               ; preds = %87, %78
  %94 = phi i1 [ false, %78 ], [ %92, %87 ]
  br i1 %94, label %95, label %252

95:                                               ; preds = %93
  %96 = load ptr, ptr %11, align 8, !tbaa !99
  %97 = getelementptr inbounds nuw %struct.MpegTSSectionFilter, ptr %96, i32 0, i32 1
  %98 = load i32, ptr %97, align 4, !tbaa !324
  %99 = icmp eq i32 %98, -1
  br i1 %99, label %100, label %122

100:                                              ; preds = %95
  %101 = load ptr, ptr %11, align 8, !tbaa !99
  %102 = getelementptr inbounds nuw %struct.MpegTSSectionFilter, ptr %101, i32 0, i32 0
  %103 = load i32, ptr %102, align 8, !tbaa !323
  %104 = load i32, ptr %14, align 4, !tbaa !11
  %105 = sub nsw i32 %103, %104
  %106 = icmp sge i32 %105, 3
  br i1 %106, label %107, label %122

107:                                              ; preds = %100
  %108 = load ptr, ptr %12, align 8, !tbaa !16
  %109 = getelementptr inbounds i8, ptr %108, i64 1
  %110 = load i16, ptr %109, align 1, !tbaa !66
  %111 = call zeroext i16 @av_bswap16(i16 noundef zeroext %110) #14
  %112 = zext i16 %111 to i32
  %113 = and i32 %112, 4095
  %114 = add nsw i32 %113, 3
  store i32 %114, ptr %13, align 4, !tbaa !11
  %115 = load i32, ptr %13, align 4, !tbaa !11
  %116 = icmp sgt i32 %115, 4096
  br i1 %116, label %117, label %118

117:                                              ; preds = %107
  store i32 1, ptr %15, align 4
  br label %253

118:                                              ; preds = %107
  %119 = load i32, ptr %13, align 4, !tbaa !11
  %120 = load ptr, ptr %11, align 8, !tbaa !99
  %121 = getelementptr inbounds nuw %struct.MpegTSSectionFilter, ptr %120, i32 0, i32 1
  store i32 %119, ptr %121, align 4, !tbaa !324
  br label %122

122:                                              ; preds = %118, %100, %95
  %123 = load ptr, ptr %11, align 8, !tbaa !99
  %124 = getelementptr inbounds nuw %struct.MpegTSSectionFilter, ptr %123, i32 0, i32 1
  %125 = load i32, ptr %124, align 4, !tbaa !324
  %126 = icmp ne i32 %125, -1
  br i1 %126, label %127, label %243

127:                                              ; preds = %122
  %128 = load ptr, ptr %11, align 8, !tbaa !99
  %129 = getelementptr inbounds nuw %struct.MpegTSSectionFilter, ptr %128, i32 0, i32 0
  %130 = load i32, ptr %129, align 8, !tbaa !323
  %131 = load i32, ptr %14, align 4, !tbaa !11
  %132 = load ptr, ptr %11, align 8, !tbaa !99
  %133 = getelementptr inbounds nuw %struct.MpegTSSectionFilter, ptr %132, i32 0, i32 1
  %134 = load i32, ptr %133, align 4, !tbaa !324
  %135 = add nsw i32 %131, %134
  %136 = icmp sge i32 %130, %135
  br i1 %136, label %137, label %243

137:                                              ; preds = %127
  call void @llvm.lifetime.start.p0(i64 4, ptr %16) #12
  store i32 1, ptr %16, align 4, !tbaa !11
  %138 = load ptr, ptr %11, align 8, !tbaa !99
  %139 = getelementptr inbounds nuw %struct.MpegTSSectionFilter, ptr %138, i32 0, i32 6
  %140 = load i8, ptr %139, align 8
  %141 = and i8 %140, -3
  %142 = or i8 %141, 2
  store i8 %142, ptr %139, align 8
  %143 = load ptr, ptr %11, align 8, !tbaa !99
  %144 = getelementptr inbounds nuw %struct.MpegTSSectionFilter, ptr %143, i32 0, i32 6
  %145 = load i8, ptr %144, align 8
  %146 = and i8 %145, 1
  %147 = zext i8 %146 to i32
  %148 = icmp ne i32 %147, 0
  br i1 %148, label %149, label %211

149:                                              ; preds = %137
  %150 = call ptr @av_crc_get_table(i32 noundef 3)
  %151 = load ptr, ptr %12, align 8, !tbaa !16
  %152 = load ptr, ptr %11, align 8, !tbaa !99
  %153 = getelementptr inbounds nuw %struct.MpegTSSectionFilter, ptr %152, i32 0, i32 1
  %154 = load i32, ptr %153, align 4, !tbaa !324
  %155 = sext i32 %154 to i64
  %156 = call i32 @av_crc(ptr noundef %150, i32 noundef -1, ptr noundef %151, i64 noundef %155) #15
  %157 = icmp ne i32 %156, 0
  %158 = xor i1 %157, true
  %159 = zext i1 %158 to i32
  store i32 %159, ptr %16, align 4, !tbaa !11
  %160 = load ptr, ptr %11, align 8, !tbaa !99
  %161 = getelementptr inbounds nuw %struct.MpegTSSectionFilter, ptr %160, i32 0, i32 1
  %162 = load i32, ptr %161, align 4, !tbaa !324
  %163 = icmp sge i32 %162, 4
  br i1 %163, label %164, label %176

164:                                              ; preds = %149
  %165 = load ptr, ptr %12, align 8, !tbaa !16
  %166 = load ptr, ptr %11, align 8, !tbaa !99
  %167 = getelementptr inbounds nuw %struct.MpegTSSectionFilter, ptr %166, i32 0, i32 1
  %168 = load i32, ptr %167, align 4, !tbaa !324
  %169 = sext i32 %168 to i64
  %170 = getelementptr inbounds i8, ptr %165, i64 %169
  %171 = getelementptr inbounds i8, ptr %170, i64 -4
  %172 = load i32, ptr %171, align 1, !tbaa !66
  %173 = call i32 @av_bswap32(i32 noundef %172) #14
  %174 = load ptr, ptr %11, align 8, !tbaa !99
  %175 = getelementptr inbounds nuw %struct.MpegTSSectionFilter, ptr %174, i32 0, i32 3
  store i32 %173, ptr %175, align 4, !tbaa !212
  br label %176

176:                                              ; preds = %164, %149
  %177 = load i32, ptr %16, align 4, !tbaa !11
  %178 = icmp ne i32 %177, 0
  br i1 %178, label %179, label %187

179:                                              ; preds = %176
  %180 = load ptr, ptr %6, align 8, !tbaa !20
  %181 = getelementptr inbounds nuw %struct.MpegTSContext, ptr %180, i32 0, i32 22
  %182 = load ptr, ptr %7, align 8, !tbaa !50
  %183 = getelementptr inbounds nuw %struct.MpegTSFilter, ptr %182, i32 0, i32 0
  %184 = load i32, ptr %183, align 8, !tbaa !134
  %185 = sext i32 %184 to i64
  %186 = getelementptr inbounds [8192 x i8], ptr %181, i64 0, i64 %185
  store i8 100, ptr %186, align 1, !tbaa !66
  br label %210

187:                                              ; preds = %176
  %188 = load ptr, ptr %6, align 8, !tbaa !20
  %189 = getelementptr inbounds nuw %struct.MpegTSContext, ptr %188, i32 0, i32 22
  %190 = load ptr, ptr %7, align 8, !tbaa !50
  %191 = getelementptr inbounds nuw %struct.MpegTSFilter, ptr %190, i32 0, i32 0
  %192 = load i32, ptr %191, align 8, !tbaa !134
  %193 = sext i32 %192 to i64
  %194 = getelementptr inbounds [8192 x i8], ptr %189, i64 0, i64 %193
  %195 = load i8, ptr %194, align 1, !tbaa !66
  %196 = sext i8 %195 to i32
  %197 = icmp sgt i32 %196, -10
  br i1 %197, label %198, label %208

198:                                              ; preds = %187
  %199 = load ptr, ptr %6, align 8, !tbaa !20
  %200 = getelementptr inbounds nuw %struct.MpegTSContext, ptr %199, i32 0, i32 22
  %201 = load ptr, ptr %7, align 8, !tbaa !50
  %202 = getelementptr inbounds nuw %struct.MpegTSFilter, ptr %201, i32 0, i32 0
  %203 = load i32, ptr %202, align 8, !tbaa !134
  %204 = sext i32 %203 to i64
  %205 = getelementptr inbounds [8192 x i8], ptr %200, i64 0, i64 %204
  %206 = load i8, ptr %205, align 1, !tbaa !66
  %207 = add i8 %206, -1
  store i8 %207, ptr %205, align 1, !tbaa !66
  br label %209

208:                                              ; preds = %187
  store i32 2, ptr %16, align 4, !tbaa !11
  br label %209

209:                                              ; preds = %208, %198
  br label %210

210:                                              ; preds = %209, %179
  br label %211

211:                                              ; preds = %210, %137
  %212 = load i32, ptr %16, align 4, !tbaa !11
  %213 = icmp ne i32 %212, 0
  br i1 %213, label %214, label %229

214:                                              ; preds = %211
  %215 = load ptr, ptr %11, align 8, !tbaa !99
  %216 = getelementptr inbounds nuw %struct.MpegTSSectionFilter, ptr %215, i32 0, i32 7
  %217 = load ptr, ptr %216, align 8, !tbaa !101
  %218 = load ptr, ptr %7, align 8, !tbaa !50
  %219 = load ptr, ptr %12, align 8, !tbaa !16
  %220 = load ptr, ptr %11, align 8, !tbaa !99
  %221 = getelementptr inbounds nuw %struct.MpegTSSectionFilter, ptr %220, i32 0, i32 1
  %222 = load i32, ptr %221, align 4, !tbaa !324
  call void %217(ptr noundef %218, ptr noundef %219, i32 noundef %222)
  %223 = load i32, ptr %16, align 4, !tbaa !11
  %224 = icmp ne i32 %223, 1
  br i1 %224, label %225, label %228

225:                                              ; preds = %214
  %226 = load ptr, ptr %11, align 8, !tbaa !99
  %227 = getelementptr inbounds nuw %struct.MpegTSSectionFilter, ptr %226, i32 0, i32 2
  store i32 -1, ptr %227, align 8, !tbaa !105
  br label %228

228:                                              ; preds = %225, %214
  br label %229

229:                                              ; preds = %228, %211
  %230 = load ptr, ptr %11, align 8, !tbaa !99
  %231 = getelementptr inbounds nuw %struct.MpegTSSectionFilter, ptr %230, i32 0, i32 1
  %232 = load i32, ptr %231, align 4, !tbaa !324
  %233 = load ptr, ptr %12, align 8, !tbaa !16
  %234 = sext i32 %232 to i64
  %235 = getelementptr inbounds i8, ptr %233, i64 %234
  store ptr %235, ptr %12, align 8, !tbaa !16
  %236 = load ptr, ptr %11, align 8, !tbaa !99
  %237 = getelementptr inbounds nuw %struct.MpegTSSectionFilter, ptr %236, i32 0, i32 1
  %238 = load i32, ptr %237, align 4, !tbaa !324
  %239 = load i32, ptr %14, align 4, !tbaa !11
  %240 = add nsw i32 %239, %238
  store i32 %240, ptr %14, align 4, !tbaa !11
  %241 = load ptr, ptr %11, align 8, !tbaa !99
  %242 = getelementptr inbounds nuw %struct.MpegTSSectionFilter, ptr %241, i32 0, i32 1
  store i32 -1, ptr %242, align 4, !tbaa !324
  call void @llvm.lifetime.end.p0(i64 4, ptr %16) #12
  br label %251

243:                                              ; preds = %127, %122
  %244 = load ptr, ptr %11, align 8, !tbaa !99
  %245 = getelementptr inbounds nuw %struct.MpegTSSectionFilter, ptr %244, i32 0, i32 1
  store i32 -1, ptr %245, align 4, !tbaa !324
  %246 = load ptr, ptr %11, align 8, !tbaa !99
  %247 = getelementptr inbounds nuw %struct.MpegTSSectionFilter, ptr %246, i32 0, i32 6
  %248 = load i8, ptr %247, align 8
  %249 = and i8 %248, -3
  %250 = or i8 %249, 0
  store i8 %250, ptr %247, align 8
  br label %252

251:                                              ; preds = %229
  br label %78, !llvm.loop !325

252:                                              ; preds = %243, %93
  store i32 0, ptr %15, align 4
  br label %253

253:                                              ; preds = %252, %117, %46
  call void @llvm.lifetime.end.p0(i64 4, ptr %14) #12
  call void @llvm.lifetime.end.p0(i64 4, ptr %13) #12
  call void @llvm.lifetime.end.p0(i64 8, ptr %12) #12
  call void @llvm.lifetime.end.p0(i64 8, ptr %11) #12
  %254 = load i32, ptr %15, align 4
  switch i32 %254, label %256 [
    i32 0, label %255
    i32 1, label %255
  ]

255:                                              ; preds = %253, %253
  ret void

256:                                              ; preds = %253
  unreachable
}