; Function Attrs: nounwind uwtable
define internal fastcc void @write_section_data(ptr noundef captures(none) %0, ptr noundef nonnull %1, ptr noundef readonly captures(none) %2, i32 noundef %3, i32 noundef range(i32 0, 2) %4) unnamed_addr #0 {
  %6 = getelementptr inbounds nuw i8, ptr %1, i64 32
  %.not = icmp eq i32 %4, 0
  br i1 %.not, label %15, label %7

7:                                                ; preds = %5
  %8 = getelementptr inbounds nuw i8, ptr %1, i64 56
  %9 = load ptr, ptr %8, align 8, !tbaa !69
  %10 = sext i32 %3 to i64
  tail call void @llvm.memcpy.p0.p0.i64(ptr align 1 %9, ptr align 1 %2, i64 %10, i1 false)
  store i32 %3, ptr %6, align 8, !tbaa !281
  %11 = getelementptr inbounds nuw i8, ptr %1, i64 36
  store i32 -1, ptr %11, align 4, !tbaa !282
  %12 = getelementptr inbounds nuw i8, ptr %1, i64 64
  %13 = load i8, ptr %12, align 8
  %14 = and i8 %13, -3
  store i8 %14, ptr %12, align 8
  br label %.lr.ph

15:                                               ; preds = %5
  %16 = getelementptr inbounds nuw i8, ptr %1, i64 64
  %17 = load i8, ptr %16, align 8
  %18 = and i8 %17, 2
  %.not70 = icmp eq i8 %18, 0
  br i1 %.not70, label %19, label %.critedge

19:                                               ; preds = %15
  %20 = load i32, ptr %6, align 8, !tbaa !281
  %21 = sub nsw i32 4096, %20
  %spec.select = tail call i32 @llvm.smin.i32(i32 %3, i32 %21)
  %22 = getelementptr inbounds nuw i8, ptr %1, i64 56
  %23 = load ptr, ptr %22, align 8, !tbaa !69
  %24 = sext i32 %20 to i64
  %25 = getelementptr inbounds i8, ptr %23, i64 %24
  %26 = sext i32 %spec.select to i64
  tail call void @llvm.memcpy.p0.p0.i64(ptr align 1 %25, ptr align 1 %2, i64 %26, i1 false)
  %27 = load i32, ptr %6, align 8, !tbaa !281
  %28 = add nsw i32 %27, %spec.select
  store i32 %28, ptr %6, align 8, !tbaa !281
  br label %.lr.ph

.lr.ph:                                           ; preds = %7, %19
  %29 = getelementptr inbounds nuw i8, ptr %1, i64 56
  %30 = load ptr, ptr %29, align 8, !tbaa !69
  %31 = getelementptr inbounds nuw i8, ptr %1, i64 36
  %32 = getelementptr inbounds nuw i8, ptr %1, i64 64
  %33 = getelementptr inbounds nuw i8, ptr %1, i64 44
  %34 = getelementptr inbounds nuw i8, ptr %0, i64 136
  %35 = getelementptr inbounds nuw i8, ptr %1, i64 72
  %36 = getelementptr inbounds nuw i8, ptr %1, i64 40
  br label %37

37:                                               ; preds = %.lr.ph, %83
  %.06388 = phi i32 [ 0, %.lr.ph ], [ %87, %83 ]
  %.06586 = phi ptr [ %30, %.lr.ph ], [ %86, %83 ]
  %38 = load i8, ptr %.06586, align 1, !tbaa !9
  %.not71 = icmp eq i8 %38, -1
  br i1 %.not71, label %.critedge, label %39

39:                                               ; preds = %37
  %40 = load i32, ptr %31, align 4, !tbaa !282
  %41 = icmp eq i32 %40, -1
  %.pre = load i32, ptr %6, align 8, !tbaa !281
  br i1 %41, label %42, label %.thread

42:                                               ; preds = %39
  %43 = sub nsw i32 %.pre, %.06388
  %44 = icmp sgt i32 %43, 2
  br i1 %44, label %45, label %._crit_edge

45:                                               ; preds = %42
  %46 = getelementptr inbounds nuw i8, ptr %.06586, i64 1
  %47 = load i16, ptr %46, align 1, !tbaa !9
  %48 = and i16 %47, -241
  %49 = tail call i16 @llvm.bswap.i16(i16 %48)
  %50 = icmp samesign ugt i16 %49, 4093
  br i1 %50, label %.critedge, label %51

51:                                               ; preds = %45
  %narrow = add nuw nsw i16 %49, 3
  %52 = zext nneg i16 %narrow to i32
  store i32 %52, ptr %31, align 4, !tbaa !282
  br label %.thread

._crit_edge:                                      ; preds = %42
  %.pre92 = load i8, ptr %32, align 8
  br label %split

.thread:                                          ; preds = %39, %51
  %53 = phi i32 [ %40, %39 ], [ %52, %51 ]
  %54 = add nsw i32 %53, %.06388
  %.not73 = icmp slt i32 %.pre, %54
  %.pre93 = load i8, ptr %32, align 8
  br i1 %.not73, label %split, label %55

55:                                               ; preds = %.thread
  %56 = or i8 %.pre93, 2
  store i8 %56, ptr %32, align 8
  %57 = and i8 %.pre93, 1
  %.not74 = icmp eq i8 %57, 0
  br i1 %.not74, label %79, label %58

58:                                               ; preds = %55
  %59 = tail call ptr @av_crc_get_table(i32 noundef 3) #12
  %60 = load i32, ptr %31, align 4, !tbaa !282
  %61 = sext i32 %60 to i64
  %62 = tail call i32 @av_crc(ptr noundef %59, i32 noundef -1, ptr noundef nonnull %.06586, i64 noundef %61) #14
  %.not75 = icmp eq i32 %62, 0
  %63 = icmp sgt i32 %60, 3
  br i1 %63, label %64, label %69

64:                                               ; preds = %58
  %65 = getelementptr inbounds nuw i8, ptr %.06586, i64 %61
  %66 = getelementptr inbounds i8, ptr %65, i64 -4
  %67 = load i32, ptr %66, align 1, !tbaa !9
  %68 = tail call i32 @llvm.bswap.i32(i32 %67)
  store i32 %68, ptr %33, align 4, !tbaa !91
  br label %69

69:                                               ; preds = %64, %58
  %70 = load i32, ptr %1, align 8, !tbaa !63
  %71 = sext i32 %70 to i64
  %72 = getelementptr inbounds [8192 x i8], ptr %34, i64 0, i64 %71
  br i1 %.not75, label %73, label %74

73:                                               ; preds = %69
  store i8 100, ptr %72, align 1, !tbaa !9
  %.pre91 = load i32, ptr %31, align 4, !tbaa !282
  br label %79

74:                                               ; preds = %69
  %75 = load i8, ptr %72, align 1, !tbaa !9
  %76 = icmp sgt i8 %75, -10
  br i1 %76, label %77, label %.critedge85

77:                                               ; preds = %74
  %78 = add nsw i8 %75, -1
  store i8 %78, ptr %72, align 1, !tbaa !9
  br label %83

79:                                               ; preds = %73, %55
  %80 = phi i32 [ %.pre91, %73 ], [ %53, %55 ]
  %81 = load ptr, ptr %35, align 8, !tbaa !66
  tail call void %81(ptr noundef nonnull %1, ptr noundef nonnull %.06586, i32 noundef %80) #12
  br label %83

.critedge85:                                      ; preds = %74
  %82 = load ptr, ptr %35, align 8, !tbaa !66
  tail call void %82(ptr noundef nonnull %1, ptr noundef nonnull %.06586, i32 noundef %60) #12
  store i32 -1, ptr %36, align 8, !tbaa !70
  br label %83

83:                                               ; preds = %79, %77, %.critedge85
  %84 = load i32, ptr %31, align 4, !tbaa !282
  %85 = sext i32 %84 to i64
  %86 = getelementptr inbounds i8, ptr %.06586, i64 %85
  %87 = add nsw i32 %84, %.06388
  store i32 -1, ptr %31, align 4, !tbaa !282
  %88 = load ptr, ptr %29, align 8, !tbaa !69
  %89 = ptrtoint ptr %86 to i64
  %90 = ptrtoint ptr %88 to i64
  %91 = sub i64 %89, %90
  %92 = icmp slt i64 %91, 4096
  br i1 %92, label %37, label %.critedge, !llvm.loop !283

split:                                            ; preds = %.thread, %._crit_edge
  %93 = phi i8 [ %.pre92, %._crit_edge ], [ %.pre93, %.thread ]
  store i32 -1, ptr %31, align 4, !tbaa !282
  %94 = and i8 %93, -3
  store i8 %94, ptr %32, align 8
  br label %.critedge

.critedge:                                        ; preds = %45, %83, %37, %split, %15
  ret void
}